; Function Attrs: mustprogress nounwind uwtable
define dso_local noundef nonnull ptr @_Z26cmFortran_yy_create_bufferP8_IO_FILEiPv(ptr noundef %0, i32 noundef %1, ptr noundef captures(none) %2) local_unnamed_addr #1 {
  %4 = tail call noalias noundef dereferenceable_or_null(64) ptr @malloc(i64 noundef 64) #26
  %.not = icmp eq ptr %4, null
  br i1 %.not, label %5, label %6

5:                                                ; preds = %3
  tail call fastcc void @_ZL14yy_fatal_errorPKcPv(ptr noundef nonnull @.str.1) #27
  unreachable

6:                                                ; preds = %3
  %7 = getelementptr inbounds nuw i8, ptr %4, i64 24
  store i32 %1, ptr %7, align 8, !tbaa !25
  %8 = add nsw i32 %1, 2
  %9 = sext i32 %8 to i64
  %10 = tail call noalias noundef ptr @malloc(i64 noundef %9) #26
  %11 = getelementptr inbounds nuw i8, ptr %4, i64 8
  store ptr %10, ptr %11, align 8, !tbaa !27
  %.not14 = icmp eq ptr %10, null
  br i1 %.not14, label %12, label %13

12:                                               ; preds = %6
  tail call fastcc void @_ZL14yy_fatal_errorPKcPv(ptr noundef nonnull @.str.1) #27
  unreachable

13:                                               ; preds = %6
  %14 = getelementptr inbounds nuw i8, ptr %4, i64 32
  store i32 1, ptr %14, align 8, !tbaa !28
  tail call fastcc void @_ZL24cmFortran_yy_init_bufferP15yy_buffer_stateP8_IO_FILEPv(ptr noundef nonnull %4, ptr noundef %0, ptr noundef %2)
  ret ptr %4
}